; Function Attrs: mustprogress uwtable
define void @_ZN3nix14getDerivationsERNS_9EvalStateERNS_5ValueERKNSt7__cxx1112basic_stringIcSt11char_traitsIcESaIcEEERNS_8BindingsERNS4_4listINS_11PackageInfoE19traceable_allocatorISF_EEEb(ptr noundef nonnull align 8 dereferenceable(1248) %0, ptr noundef nonnull align 8 dereferenceable(24) %1, ptr noundef nonnull align 8 dereferenceable(32) %2, ptr noundef nonnull align 8 dereferenceable(16) %3, ptr noundef nonnull align 8 dereferenceable(24) %4, i1 noundef zeroext %5) local_unnamed_addr #5 personality ptr @__gxx_personality_v0 {
  %7 = alloca %"class.std::set.291", align 8
  %8 = getelementptr inbounds i8, ptr %7, i64 8
  store i32 0, ptr %8, align 8
  %9 = getelementptr inbounds i8, ptr %7, i64 16
  store ptr null, ptr %9, align 8
  %10 = getelementptr inbounds i8, ptr %7, i64 24
  store ptr %8, ptr %10, align 8
  %11 = getelementptr inbounds i8, ptr %7, i64 32
  store ptr %8, ptr %11, align 8
  %12 = getelementptr inbounds i8, ptr %7, i64 40
  store i64 0, ptr %12, align 8
  invoke fastcc void @_ZN3nixL14getDerivationsERNS_9EvalStateERNS_5ValueERKNSt7__cxx1112basic_stringIcSt11char_traitsIcESaIcEEERNS_8BindingsERNS4_4listINS_11PackageInfoE19traceable_allocatorISF_EEERSt3setIPSC_St4lessISL_ESaISL_EEb(ptr noundef nonnull align 8 dereferenceable(1248) %0, ptr noundef nonnull align 8 dereferenceable(24) %1, ptr noundef nonnull align 8 dereferenceable(32) %2, ptr noundef nonnull align 8 dereferenceable(16) %3, ptr noundef nonnull align 8 dereferenceable(24) %4, ptr noundef nonnull align 8 dereferenceable(48) %7, i1 noundef zeroext %5)
          to label %13 unwind label %18

13:                                               ; preds = %6
  %14 = load ptr, ptr %9, align 8
  invoke void @_ZNSt8_Rb_treeIPN3nix8BindingsES2_St9_IdentityIS2_ESt4lessIS2_ESaIS2_EE8_M_eraseEPSt13_Rb_tree_nodeIS2_E(ptr noundef nonnull align 8 dereferenceable(48) %7, ptr noundef %14)
          to label %_ZNSt3setIPN3nix8BindingsESt4lessIS2_ESaIS2_EED2Ev.exit unwind label %15

15:                                               ; preds = %13
  %16 = landingpad { ptr, i32 }
          catch ptr null
  %17 = extractvalue { ptr, i32 } %16, 0
  call void @__clang_call_terminate(ptr %17) #31
  unreachable

_ZNSt3setIPN3nix8BindingsESt4lessIS2_ESaIS2_EED2Ev.exit: ; preds = %13
  ret void

18:                                               ; preds = %6
  %19 = landingpad { ptr, i32 }
          cleanup
  call void @_ZNSt3setIPN3nix8BindingsESt4lessIS2_ESaIS2_EED2Ev(ptr noundef nonnull align 8 dereferenceable(48) %7) #28
  resume { ptr, i32 } %19
}